; Function Attrs: nounwind uwtable
define dso_local ptr @PyMemoryView_FromBuffer(ptr noundef readonly captures(none) %0) local_unnamed_addr #0 {
  %2 = load ptr, ptr %0, align 8, !tbaa !117
  %3 = icmp eq ptr %2, null
  br i1 %3, label %4, label %6

4:                                                ; preds = %1
  %5 = load ptr, ptr @PyExc_ValueError, align 8, !tbaa !104
  tail call void @PyErr_SetString(ptr noundef %5, ptr noundef nonnull @.str.1) #14
  br label %Py_DECREF.exit

6:                                                ; preds = %1
  %7 = tail call ptr @_PyObject_GC_New(ptr noundef nonnull @_PyManagedBuffer_Type) #14
  %8 = icmp eq ptr %7, null
  br i1 %8, label %Py_DECREF.exit, label %9

9:                                                ; preds = %6
  %10 = getelementptr inbounds nuw i8, ptr %7, i64 16
  store i32 0, ptr %10, align 8, !tbaa !4
  %11 = getelementptr inbounds nuw i8, ptr %7, i64 24
  store i64 0, ptr %11, align 8, !tbaa !22
  %12 = getelementptr inbounds nuw i8, ptr %7, i64 40
  store ptr null, ptr %12, align 8, !tbaa !21
  %13 = getelementptr i8, ptr %7, i64 -16
  %14 = tail call align 8 ptr @llvm.threadlocal.address.p0(ptr align 8 @_Py_tss_tstate)
  %15 = load ptr, ptr %14, align 8, !tbaa !23
  %16 = getelementptr inbounds nuw i8, ptr %15, i64 16
  %17 = load ptr, ptr %16, align 8, !tbaa !25
  %18 = getelementptr inbounds nuw i8, ptr %17, i64 7424
  %19 = getelementptr inbounds nuw i8, ptr %17, i64 7432
  %20 = load i64, ptr %19, align 8, !tbaa !17
  %21 = inttoptr i64 %20 to ptr
  %22 = ptrtoint ptr %13 to i64
  %23 = load i64, ptr %21, align 8, !tbaa !19
  %24 = and i64 %23, 3
  %25 = or i64 %24, %22
  store i64 %25, ptr %21, align 8, !tbaa !19
  %26 = getelementptr i8, ptr %7, i64 -8
  %27 = load i64, ptr %26, align 8, !tbaa !17
  %28 = and i64 %27, 3
  %29 = or i64 %28, %20
  store i64 %29, ptr %26, align 8, !tbaa !17
  %30 = getelementptr inbounds nuw i8, ptr %17, i64 7632
  %31 = load i32, ptr %30, align 8, !tbaa !34
  %32 = xor i32 %31, 1
  %33 = sext i32 %32 to i64
  %34 = ptrtoint ptr %18 to i64
  %35 = or i64 %33, %34
  store i64 %35, ptr %13, align 8, !tbaa !19
  store i64 %22, ptr %19, align 8, !tbaa !17
  %36 = getelementptr inbounds nuw i8, ptr %7, i64 32
  tail call void @llvm.memcpy.p0.p0.i64(ptr noundef nonnull align 8 dereferenceable(80) %36, ptr noundef nonnull align 8 dereferenceable(80) %0, i64 80, i1 false), !tbaa.struct !129
  store ptr null, ptr %12, align 8, !tbaa !21
  %37 = tail call fastcc ptr @mbuf_add_view(ptr noundef nonnull %7, ptr noundef null)
  %38 = load i32, ptr %7, align 8, !tbaa !102
  %.not.i = icmp sgt i32 %38, -1
  br i1 %.not.i, label %39, label %Py_DECREF.exit

39:                                               ; preds = %9
  %40 = add nsw i32 %38, -1
  store i32 %40, ptr %7, align 8, !tbaa !102
  %41 = icmp eq i32 %40, 0
  br i1 %41, label %42, label %Py_DECREF.exit

42:                                               ; preds = %39
  tail call void @_Py_Dealloc(ptr noundef nonnull %7) #14
  br label %Py_DECREF.exit

Py_DECREF.exit:                                   ; preds = %6, %42, %39, %9, %4
  %.0 = phi ptr [ null, %4 ], [ %37, %9 ], [ %37, %39 ], [ %37, %42 ], [ null, %6 ]
  ret ptr %.0
}